target datalayout = "e-m:e-p270:32:32-p271:32:32-p272:64:64-i64:64-i128:128-f80:128-n8:16:32:64-S128"
target triple = "x86_64-pc-linux-gnu"

%struct.anon = type { i32, i32 }

; Function Attrs: nounwind null_pointer_is_valid sspstrong uwtable
define i32 @wtap_pcap_encap_to_wtap_encap(i32 noundef %0) #0 {
  %2 = alloca i32, align 4
  %3 = alloca i32, align 4
  %4 = alloca i32, align 4
  %5 = alloca i32, align 4
  store i32 %0, ptr %3, align 4
  call void @llvm.lifetime.start.p0(i64 4, ptr %4) #9
  store i32 0, ptr %4, align 4
  br label %6

6:                                                ; preds = %25, %1
  %7 = load i32, ptr %4, align 4
  %8 = zext i32 %7 to i64
  %9 = icmp ult i64 %8, 162
  br i1 %9, label %10, label %28

10:                                               ; preds = %6
  %11 = load i32, ptr %4, align 4
  %12 = zext i32 %11 to i64
  %13 = getelementptr [162 x %struct.anon], ptr @pcap_to_wtap_map, i64 0, i64 %12
  %14 = getelementptr inbounds nuw %struct.anon, ptr %13, i32 0, i32 0
  %15 = load i32, ptr %14, align 8
  %16 = load i32, ptr %3, align 4
  %17 = icmp eq i32 %15, %16
  br i1 %17, label %18, label %24

18:                                               ; preds = %10
  %19 = load i32, ptr %4, align 4
  %20 = zext i32 %19 to i64
  %21 = getelementptr [162 x %struct.anon], ptr @pcap_to_wtap_map, i64 0, i64 %20
  %22 = getelementptr inbounds nuw %struct.anon, ptr %21, i32 0, i32 1
  %23 = load i32, ptr %22, align 4
  store i32 %23, ptr %2, align 4
  store i32 1, ptr %5, align 4
  br label %29

24:                                               ; preds = %10
  br label %25

25:                                               ; preds = %24
  %26 = load i32, ptr %4, align 4
  %27 = add i32 %26, 1
  store i32 %27, ptr %4, align 4
  br label %6, !llvm.loop !6

28:                                               ; preds = %6
  store i32 0, ptr %2, align 4
  store i32 1, ptr %5, align 4
  br label %29

29:                                               ; preds = %28, %18
  call void @llvm.lifetime.end.p0(i64 4, ptr %4) #9
  %30 = load i32, ptr %2, align 4
  ret i32 %30
}