; Function Attrs: nofree norecurse nosync nounwind null_pointer_is_valid sspstrong memory(none) uwtable
define i32 @wtap_pcap_encap_to_wtap_encap(i32 noundef %0) local_unnamed_addr #0 {
  br label %3

2:                                                ; preds = %3
  %indvars.iv.next = add nuw nsw i64 %indvars.iv, 1
  %exitcond.not = icmp eq i64 %indvars.iv.next, 162
  br i1 %exitcond.not, label %.loopexit, label %3, !llvm.loop !6

3:                                                ; preds = %1, %2
  %indvars.iv = phi i64 [ 0, %1 ], [ %indvars.iv.next, %2 ]
  %4 = getelementptr [162 x %struct.anon], ptr @pcap_to_wtap_map, i64 0, i64 %indvars.iv
  %5 = load i32, ptr %4, align 8
  %6 = icmp eq i32 %5, %0
  br i1 %6, label %7, label %2

7:                                                ; preds = %3
  %8 = getelementptr [162 x %struct.anon], ptr @pcap_to_wtap_map, i64 0, i64 %indvars.iv, i32 1
  %9 = load i32, ptr %8, align 4
  br label %.loopexit

.loopexit:                                        ; preds = %2, %7
  %.06 = phi i32 [ %9, %7 ], [ 0, %2 ]
  ret i32 %.06
}